; ModuleID = 'source-C-CXX/60/244.c'
source_filename = "source-C-CXX/60/244.c"
target datalayout = "e-m:e-p270:32:32-p271:32:32-p272:64:64-i64:64-f80:128-n8:16:32:64-S128"
target triple = "x86_64-pc-linux-gnu"

%struct._IO_FILE = type { i32, i8*, i8*, i8*, i8*, i8*, i8*, i8*, i8*, i8*, i8*, i8*, %struct._IO_marker*, %struct._IO_FILE*, i32, i32, i64, i16, i8, [1 x i8], i8*, i64, %struct._IO_codecvt*, %struct._IO_wide_data*, %struct._IO_FILE*, i8*, i64, i32, [20 x i8] }
%struct._IO_marker = type opaque
%struct._IO_codecvt = type opaque
%struct._IO_wide_data = type opaque

@.str = private unnamed_addr constant [3 x i8] c"%d\00", align 1
@.str.2 = private unnamed_addr constant [4 x i8] c"%d\0A\00", align 1
@stdin = external local_unnamed_addr global %struct._IO_FILE*, align 8
@str = private unnamed_addr constant [2 x i8] c"1\00", align 1

; Function Attrs: nofree nounwind sspstrong uwtable
define dso_local i32 @main() local_unnamed_addr #0 {
  %1 = alloca i32, align 4
  %2 = alloca i32, align 4
  %3 = alloca [20 x i32], align 16
  %4 = bitcast i32* %1 to i8*
  call void @llvm.lifetime.start.p0i8(i64 4, i8* nonnull %4) #4
  %5 = bitcast i32* %2 to i8*
  call void @llvm.lifetime.start.p0i8(i64 4, i8* nonnull %5) #4
  %6 = bitcast [20 x i32]* %3 to i8*
  call void @llvm.lifetime.start.p0i8(i64 80, i8* nonnull %6) #4
  %7 = call i32 (i8*, ...) @__isoc99_scanf(i8* getelementptr inbounds ([3 x i8], [3 x i8]* @.str, i64 0, i64 0), i32* nonnull %1)
  %8 = getelementptr inbounds [20 x i32], [20 x i32]* %3, i64 0, i64 0
  %9 = getelementptr inbounds [20 x i32], [20 x i32]* %3, i64 0, i64 1
  %10 = load i32, i32* %1, align 4, !tbaa !5
  %11 = icmp sgt i32 %10, 0
  br i1 %11, label %12, label %74

12:                                               ; preds = %0, %69
  %13 = phi i32 [ %70, %69 ], [ 0, %0 ]
  %14 = call i32 (i8*, ...) @__isoc99_scanf(i8* getelementptr inbounds ([3 x i8], [3 x i8]* @.str, i64 0, i64 0), i32* nonnull %2)
  store i32 1, i32* %9, align 4, !tbaa !5
  %15 = load i32, i32* %2, align 4, !tbaa !5
  %16 = add i32 %15, -1
  %17 = icmp ult i32 %16, 2
  br i1 %17, label %28, label %18

18:                                               ; preds = %12
  %19 = icmp sgt i32 %15, 2
  br i1 %19, label %20, label %64

20:                                               ; preds = %18
  %21 = zext i32 %15 to i64
  %22 = add nsw i64 %21, -2
  %23 = add nsw i64 %21, -3
  %24 = and i64 %22, 3
  %25 = icmp ult i64 %23, 3
  br i1 %25, label %49, label %26

26:                                               ; preds = %20
  %27 = and i64 %22, -4
  br label %30

28:                                               ; preds = %12
  %29 = call i32 @puts(i8* nonnull dereferenceable(1) getelementptr inbounds ([2 x i8], [2 x i8]* @str, i64 0, i64 0))
  br label %69

30:                                               ; preds = %30, %26
  %31 = phi i32 [ 1, %26 ], [ %44, %30 ]
  %32 = phi i32 [ 1, %26 ], [ %41, %30 ]
  %33 = phi i64 [ 2, %26 ], [ %46, %30 ]
  %34 = phi i64 [ %27, %26 ], [ %47, %30 ]
  %35 = add nsw i32 %31, %32
  %36 = getelementptr inbounds [20 x i32], [20 x i32]* %3, i64 0, i64 %33
  store i32 %35, i32* %36, align 8, !tbaa !5
  %37 = or i64 %33, 1
  %38 = add nsw i32 %35, %31
  %39 = getelementptr inbounds [20 x i32], [20 x i32]* %3, i64 0, i64 %37
  store i32 %38, i32* %39, align 4, !tbaa !5
  %40 = add nuw nsw i64 %33, 2
  %41 = add nsw i32 %38, %35
  %42 = getelementptr inbounds [20 x i32], [20 x i32]* %3, i64 0, i64 %40
  store i32 %41, i32* %42, align 8, !tbaa !5
  %43 = add nuw nsw i64 %33, 3
  %44 = add nsw i32 %41, %38
  %45 = getelementptr inbounds [20 x i32], [20 x i32]* %3, i64 0, i64 %43
  store i32 %44, i32* %45, align 4, !tbaa !5
  %46 = add nuw nsw i64 %33, 4
  %47 = add i64 %34, -4
  %48 = icmp eq i64 %47, 0
  br i1 %48, label %49, label %30, !llvm.loop !9

49:                                               ; preds = %30, %20
  %50 = phi i32 [ 1, %20 ], [ %44, %30 ]
  %51 = phi i32 [ 1, %20 ], [ %41, %30 ]
  %52 = phi i64 [ 2, %20 ], [ %46, %30 ]
  %53 = icmp eq i64 %24, 0
  br i1 %53, label %64, label %54

54:                                               ; preds = %49, %54
  %55 = phi i32 [ %59, %54 ], [ %50, %49 ]
  %56 = phi i32 [ %55, %54 ], [ %51, %49 ]
  %57 = phi i64 [ %61, %54 ], [ %52, %49 ]
  %58 = phi i64 [ %62, %54 ], [ %24, %49 ]
  %59 = add nsw i32 %55, %56
  %60 = getelementptr inbounds [20 x i32], [20 x i32]* %3, i64 0, i64 %57
  store i32 %59, i32* %60, align 4, !tbaa !5
  %61 = add nuw nsw i64 %57, 1
  %62 = add i64 %58, -1
  %63 = icmp eq i64 %62, 0
  br i1 %63, label %64, label %54, !llvm.loop !11

64:                                               ; preds = %49, %54, %18
  %65 = sext i32 %16 to i64
  %66 = getelementptr inbounds [20 x i32], [20 x i32]* %3, i64 0, i64 %65
  %67 = load i32, i32* %66, align 4, !tbaa !5
  %68 = call i32 (i8*, ...) @printf(i8* nonnull dereferenceable(1) getelementptr inbounds ([4 x i8], [4 x i8]* @.str.2, i64 0, i64 0), i32 %67)
  br label %69

69:                                               ; preds = %28, %64
  %70 = add nuw nsw i32 %13, 1
  %71 = load i32, i32* %1, align 4, !tbaa !5
  %72 = icmp slt i32 %70, %71
  br i1 %72, label %12, label %73, !llvm.loop !13

73:                                               ; preds = %69
  store i32 1, i32* %8, align 16, !tbaa !5
  br label %74

74:                                               ; preds = %73, %0
  %75 = load %struct._IO_FILE*, %struct._IO_FILE** @stdin, align 8, !tbaa !14
  %76 = call i32 @getc(%struct._IO_FILE* %75) #4
  %77 = load %struct._IO_FILE*, %struct._IO_FILE** @stdin, align 8, !tbaa !14
  %78 = call i32 @getc(%struct._IO_FILE* %77) #4
  call void @llvm.lifetime.end.p0i8(i64 80, i8* nonnull %6) #4
  call void @llvm.lifetime.end.p0i8(i64 4, i8* nonnull %5) #4
  call void @llvm.lifetime.end.p0i8(i64 4, i8* nonnull %4) #4
  ret i32 0
}

; Function Attrs: argmemonly mustprogress nofree nosync nounwind willreturn
declare void @llvm.lifetime.start.p0i8(i64 immarg, i8* nocapture) #1

; Function Attrs: nofree nounwind
declare noundef i32 @__isoc99_scanf(i8* nocapture noundef readonly, ...) local_unnamed_addr #2

; Function Attrs: nofree nounwind
declare noundef i32 @printf(i8* nocapture noundef readonly, ...) local_unnamed_addr #2

; Function Attrs: argmemonly mustprogress nofree nosync nounwind willreturn
declare void @llvm.lifetime.end.p0i8(i64 immarg, i8* nocapture) #1

; Function Attrs: nofree nounwind
declare noundef i32 @getc(%struct._IO_FILE* nocapture noundef) local_unnamed_addr #2

; Function Attrs: nofree nounwind
declare noundef i32 @puts(i8* nocapture noundef readonly) local_unnamed_addr #3


!llvm.module.flags = !{!0, !1, !2, !3}
!llvm.ident = !{!4}

!0 = !{i32 1, !"wchar_size", i32 4}
!1 = !{i32 7, !"PIC Level", i32 2}
!2 = !{i32 7, !"PIE Level", i32 2}
!3 = !{i32 7, !"uwtable", i32 1}
!4 = !{!"clang version 13.0.0"}
!5 = !{!6, !6, i64 0}
!6 = !{!"int", !7, i64 0}
!7 = !{!"omnipotent char", !8, i64 0}
!8 = !{!"Simple C/C++ TBAA"}
!9 = distinct !{!9, !10}
!10 = !{!"llvm.loop.mustprogress"}
!11 = distinct !{!11, !12}
!12 = !{!"llvm.loop.unroll.disable"}
!13 = distinct !{!13, !10}
!14 = !{!15, !15, i64 0}
!15 = !{!"any pointer", !7, i64 0}
